target datalayout = "e-m:e-p270:32:32-p271:32:32-p272:64:64-i64:64-i128:128-f80:128-n8:16:32:64-S128"
target triple = "x86_64-pc-linux-gnu"

@TextToLower.buffer = internal global [1024 x i8] zeroinitializer, align 16

; Function Attrs: nounwind uwtable
define ptr @TextToLower(ptr noundef %0) #0 {
  %2 = alloca ptr, align 8
  %3 = alloca i32, align 4
  store ptr %0, ptr %2, align 8
  call void @llvm.memset.p0.i64(ptr align 16 @TextToLower.buffer, i8 0, i64 1024, i1 false)
  %4 = load ptr, ptr %2, align 8
  %5 = icmp ne ptr %4, null
  br i1 %5, label %6, label %63

6:                                                ; preds = %1
  call void @llvm.lifetime.start.p0(i64 4, ptr %3) #13
  store i32 0, ptr %3, align 4
  br label %7

7:                                                ; preds = %59, %6
  %8 = load i32, ptr %3, align 4
  %9 = icmp slt i32 %8, 1023
  br i1 %9, label %10, label %18

10:                                               ; preds = %7
  %11 = load ptr, ptr %2, align 8
  %12 = load i32, ptr %3, align 4
  %13 = sext i32 %12 to i64
  %14 = getelementptr inbounds i8, ptr %11, i64 %13
  %15 = load i8, ptr %14, align 1
  %16 = sext i8 %15 to i32
  %17 = icmp ne i32 %16, 0
  br label %18

18:                                               ; preds = %10, %7
  %19 = phi i1 [ false, %7 ], [ %17, %10 ]
  br i1 %19, label %21, label %20

20:                                               ; preds = %18
  call void @llvm.lifetime.end.p0(i64 4, ptr %3) #13
  br label %62

21:                                               ; preds = %18
  %22 = load ptr, ptr %2, align 8
  %23 = load i32, ptr %3, align 4
  %24 = sext i32 %23 to i64
  %25 = getelementptr inbounds i8, ptr %22, i64 %24
  %26 = load i8, ptr %25, align 1
  %27 = sext i8 %26 to i32
  %28 = icmp sge i32 %27, 65
  br i1 %28, label %29, label %49

29:                                               ; preds = %21
  %30 = load ptr, ptr %2, align 8
  %31 = load i32, ptr %3, align 4
  %32 = sext i32 %31 to i64
  %33 = getelementptr inbounds i8, ptr %30, i64 %32
  %34 = load i8, ptr %33, align 1
  %35 = sext i8 %34 to i32
  %36 = icmp sle i32 %35, 90
  br i1 %36, label %37, label %49

37:                                               ; preds = %29
  %38 = load ptr, ptr %2, align 8
  %39 = load i32, ptr %3, align 4
  %40 = sext i32 %39 to i64
  %41 = getelementptr inbounds i8, ptr %38, i64 %40
  %42 = load i8, ptr %41, align 1
  %43 = sext i8 %42 to i32
  %44 = add nsw i32 %43, 32
  %45 = trunc i32 %44 to i8
  %46 = load i32, ptr %3, align 4
  %47 = sext i32 %46 to i64
  %48 = getelementptr inbounds [1024 x i8], ptr @TextToLower.buffer, i64 0, i64 %47
  store i8 %45, ptr %48, align 1
  br label %58

49:                                               ; preds = %29, %21
  %50 = load ptr, ptr %2, align 8
  %51 = load i32, ptr %3, align 4
  %52 = sext i32 %51 to i64
  %53 = getelementptr inbounds i8, ptr %50, i64 %52
  %54 = load i8, ptr %53, align 1
  %55 = load i32, ptr %3, align 4
  %56 = sext i32 %55 to i64
  %57 = getelementptr inbounds [1024 x i8], ptr @TextToLower.buffer, i64 0, i64 %56
  store i8 %54, ptr %57, align 1
  br label %58

58:                                               ; preds = %49, %37
  br label %59

59:                                               ; preds = %58
  %60 = load i32, ptr %3, align 4
  %61 = add nsw i32 %60, 1
  store i32 %61, ptr %3, align 4
  br label %7

62:                                               ; preds = %20
  br label %63

63:                                               ; preds = %62, %1
  ret ptr @TextToLower.buffer
}